target datalayout = "e-m:e-p270:32:32-p271:32:32-p272:64:64-i64:64-i128:128-f80:128-n8:16:32:64-S128"
target triple = "x86_64-pc-linux-gnu"

%struct.AVFilterContext = type { ptr, ptr, ptr, ptr, ptr, i32, ptr, ptr, i32, ptr, ptr, i32, i32, ptr, ptr, ptr, ptr, i32, ptr, i32, i32 }
%struct.Audio3dScopeContext = type { ptr, i32, i32, i32, float, float, float, float, [3 x float], [3 x float], %struct.AVRational, i32, [4 x [4 x float]], [4 x [4 x float]], [60 x ptr] }
%struct.AVRational = type { i32, i32 }

; Function Attrs: cold nounwind optsize uwtable
define internal void @uninit(ptr noundef %0) #0 {
  %2 = alloca ptr, align 8
  %3 = alloca ptr, align 8
  %4 = alloca i32, align 4
  store ptr %0, ptr %2, align 8, !tbaa !4
  call void @llvm.lifetime.start.p0(i64 8, ptr %3) #11
  %5 = load ptr, ptr %2, align 8, !tbaa !4
  %6 = getelementptr inbounds nuw %struct.AVFilterContext, ptr %5, i32 0, i32 9
  %7 = load ptr, ptr %6, align 8, !tbaa !9
  store ptr %7, ptr %3, align 8, !tbaa !22
  call void @llvm.lifetime.start.p0(i64 4, ptr %4) #11
  store i32 0, ptr %4, align 4, !tbaa !24
  br label %8

8:                                                ; preds = %18, %1
  %9 = load i32, ptr %4, align 4, !tbaa !24
  %10 = icmp slt i32 %9, 60
  br i1 %10, label %12, label %11

11:                                               ; preds = %8
  call void @llvm.lifetime.end.p0(i64 4, ptr %4) #11
  br label %21

12:                                               ; preds = %8
  %13 = load ptr, ptr %3, align 8, !tbaa !22
  %14 = getelementptr inbounds nuw %struct.Audio3dScopeContext, ptr %13, i32 0, i32 14
  %15 = load i32, ptr %4, align 4, !tbaa !24
  %16 = sext i32 %15 to i64
  %17 = getelementptr inbounds [60 x ptr], ptr %14, i64 0, i64 %16
  call void @av_frame_free(ptr noundef %17)
  br label %18

18:                                               ; preds = %12
  %19 = load i32, ptr %4, align 4, !tbaa !24
  %20 = add nsw i32 %19, 1
  store i32 %20, ptr %4, align 4, !tbaa !24
  br label %8, !llvm.loop !25

21:                                               ; preds = %11
  call void @llvm.lifetime.end.p0(i64 8, ptr %3) #11
  ret void
}